; Function Attrs: mustprogress uwtable
define noundef double @_ZN2cv11FileStorage4Impl13Base64Decoder10getFloat64Ev(ptr noundef nonnull align 8 dereferenceable(97) %0) local_unnamed_addr #13 align 2 {
  %2 = getelementptr inbounds nuw i8, ptr %0, i64 56
  %3 = getelementptr inbounds nuw i8, ptr %0, i64 64
  %4 = load ptr, ptr %3, align 8, !tbaa !269
  %5 = load ptr, ptr %2, align 8, !tbaa !133
  %6 = ptrtoint ptr %4 to i64
  %7 = ptrtoint ptr %5 to i64
  %8 = sub i64 %6, %7
  %9 = getelementptr inbounds nuw i8, ptr %0, i64 80
  %10 = load i64, ptr %9, align 8, !tbaa !331
  %11 = add i64 %10, 8
  %12 = icmp ugt i64 %11, %8
  br i1 %12, label %13, label %15

13:                                               ; preds = %1
  %14 = tail call noundef zeroext i1 @_ZN2cv11FileStorage4Impl13Base64Decoder8readMoreEi(ptr noundef nonnull align 8 dereferenceable(97) %0, i32 noundef 8)
  br i1 %14, label %._crit_edge, label %19

._crit_edge:                                      ; preds = %13
  %.pre = load i64, ptr %9, align 8, !tbaa !331
  %.pre3 = load ptr, ptr %2, align 8, !tbaa !133
  %.pre4 = add i64 %.pre, 8
  br label %15

15:                                               ; preds = %._crit_edge, %1
  %.pre-phi = phi i64 [ %.pre4, %._crit_edge ], [ %11, %1 ]
  %16 = phi ptr [ %.pre3, %._crit_edge ], [ %5, %1 ]
  %17 = phi i64 [ %.pre, %._crit_edge ], [ %10, %1 ]
  %18 = getelementptr inbounds nuw i8, ptr %16, i64 %17
  %.val = load double, ptr %18, align 1
  store i64 %.pre-phi, ptr %9, align 8, !tbaa !331
  br label %19

19:                                               ; preds = %13, %15
  %.0 = phi double [ %.val, %15 ], [ 0.000000e+00, %13 ]
  ret double %.0
}